Certificate:
    Data:
        Version: 1 (0x0)
        Serial Number: 1048577 (0x100001)
    Signature Algorithm: sha1WithRSAEncryption
        Issuer: O=My Company/emailAddress=some@email.com, L=My Town, ST=State or Providence, C=US, CN=blah
        Validity
            Not Before: Feb 26 00:16:08 2016 GMT
            Not After : Feb 25 00:16:08 2017 GMT
        Subject: C=US, ST=State or Providence, O=My Company, CN=blah
        Subject Public Key Info:
            Public Key Algorithm: rsaEncryption
                Public-Key: (4096 bit)
                Modulus:
                    00:a9:f3:c1:fb:43:e2:10:9c:d3:55:8c:21:05:59:
                    87:d8:e5:49:6a:ae:dd:68:e5:29:28:7e:f1:5a:3d:
                    21:68:bb:16:ce:9e:d5:b0:68:29:4b:99:60:55:12:
                    d6:e2:bd:30:48:56:cf:96:29:de:67:a9:2b:93:42:
                    5a:09:f8:e2:41:24:57:ea:59:80:af:74:9d:bb:96:
                    68:46:14:81:3b:63:ed:ea:f0:80:8a:cb:f1:ca:d0:
                    11:1f:5c:ec:d7:ca:3c:90:5c:27:bd:03:45:76:82:
                    03:37:e5:d2:4c:f9:6c:a8:f7:65:19:94:f0:5a:e8:
                    81:08:41:b1:91:2b:5e:02:c9:b0:ae:81:50:87:64:
                    78:7a:ad:32:fc:16:c9:79:f8:bb:b1:66:05:6e:ab:
                    8a:24:fa:bc:09:3f:59:57:88:d5:79:01:c4:41:2d:
                    67:1d:d6:cc:29:e8:d3:07:56:09:cf:e4:55:69:18:
                    7e:3a:61:b4:25:8a:a9:df:5a:c1:4d:a3:82:90:74:
                    c7:33:0c:a0:9c:14:ad:0e:40:82:f7:4d:51:aa:cd:
                    32:65:aa:a8:19:59:cf:c5:88:db:28:99:c4:8d:5d:
                    87:b8:f0:ff:20:6c:01:8a:73:86:b3:7f:c6:2e:21:
                    13:56:5a:55:73:c5:40:eb:a8:11:1a:f3:f5:f5:3d:
                    97:d1:c0:73:b9:5a:ae:ed:86:72:fd:c3:d5:73:31:
                    9d:62:af:ba:bd:e4:b2:10:1e:cd:46:28:e4:68:0b:
                    a3:08:ad:c0:8d:ac:b6:3d:28:b8:8c:c6:f0:8e:e9:
                    39:ef:e3:99:f5:40:bb:e7:e4:e9:7a:64:18:46:46:
                    4b:c9:86:b3:14:96:9f:81:bd:9b:3c:fa:74:81:21:
                    f8:0c:f0:4a:1d:5e:23:00:e6:74:0d:b3:d1:73:da:
                    3d:f3:da:78:16:99:aa:9f:c2:81:13:f2:2a:5b:48:
                    e1:4d:3b:78:65:b4:58:1a:5d:76:52:61:3d:a4:73:
                    96:ad:f9:12:e5:7f:fd:2b:26:6c:12:70:81:f7:c6:
                    61:71:06:bd:9d:a3:0b:2a:91:8e:60:dd:e4:27:57:
                    73:ef:ac:23:a3:db:a2:fb:86:b4:81:8b:71:6a:67:
                    14:81:2a:10:0b:ca:0b:37:ff:39:78:94:74:2b:6d:
                    bc:6f:09:19:e1:5f:e5:12:31:f6:4f:88:8d:35:45:
                    f3:a9:d1:66:b6:66:4f:9a:fa:86:13:9a:11:02:3c:
                    0f:86:76:a5:08:60:c7:9d:ac:aa:8a:61:c6:e7:2c:
                    f5:f5:7d:52:4b:76:79:44:2a:1c:45:7d:b1:42:1f:
                    c1:d3:72:65:b0:20:4d:20:0a:16:ef:22:cd:ff:3e:
                    df:e8:bd
                Exponent: 65537 (0x10001)
    Signature Algorithm: sha1WithRSAEncryption
         0b:c3:2e:98:54:f2:fd:46:53:a2:56:14:f1:d8:dc:8e:bb:d9:
         ee:7c:67:3e:8c:09:2a:36:7e:1f:bf:a7:95:fd:e2:34:15:8d:
         20:7a:13:97:9a:75:9a:8f:68:6c:0d:e8:78:ea:5f:aa:c1:6d:
         d0:6d:f1:79:ef:c2:32:f9:c1:79:b0:16:84:a1:cf:9c:b7:f2:
         d5:92:65:43:8a:0b:66:f0:54:a9:a4:0a:40:f7:bb:17:07:54:
         6e:a1:af:0b:b3:e4:f0:bd:44:0d:35:55:82:c3:81:7c:0c:e5:
         7d:89:44:69:a8:ab:63:f8:73:e0:ea:f9:32:53:77:b7:eb:5f:
         80:8e:49:2f:c8:a6:d5:7f:d7:fb:55:39:c7:d9:77:8c:1e:00:
         5d:35:52:b6:71:39:e1:c1:64:a6:7e:d8:28:06:75:a8:59:50:
         7a:29:0f:84:9e:11:79:b4:77:a7:76:d1:38:98:d5:f5:dc:f2:
         b1:8b:4f:44:32:14:42:af:8e:7e:43:ef:ac:f0:47:4a:68:55:
         8f:aa:50:35:ff:93:db:ef:9e:3c:a2:c8:51:cb:41:86:1a:27:
         e0:ac:a7:b4:72:c0:e8:6b:7f:71:26:41:52:17:d4:aa:b9:3b:
         36:e3:97:39:9c:46:13:f4:ac:5b:4c:94:c1:3a:a9:81:e9:cd:
         0a:92:d2:0e:3c:d7:13:a8:77:71:ad:0a:7a:b4:6c:98:66:3d:
         e8:99:25:d0:d9:36:db:a6:78:b5:7f:92:88:1c:da:d1:b8:55:
         6a:95:05:54:ef:e5:4c:df:5d:54:32:64:68:a6:2b:70:d2:21:
         5f:f1:1f:3b:ba:77:38:ad:02:73:32:63:17:6d:ec:8c:90:7d:
         3a:79:1a:4f:50:03:4d:3c:18:a5:03:4c:d7:f7:40:22:66:a8:
         e7:63:df:95:89:33:ed:01:ef:17:4a:81:71:9d:32:5d:fa:9f:
         01:a8:78:33:39:e0:53:58:fa:7d:f2:1c:b8:05:86:e0:bf:fd:
         77:c0:1e:99:39:18:01:e3:93:7f:bd:f0:7f:3a:11:39:b1:e7:
         d7:2f:1c:2b:73:86:04:6b:be:1b:0b:ef:36:5b:f7:4d:ed:b9:
         76:7f:b7:a8:ae:01:53:9c:18:a4:98:3b:d4:cf:51:c2:ab:da:
         01:53:f9:53:3c:1d:a6:f1:6b:db:60:0b:41:c0:51:2c:02:40:
         6a:1e:b4:d6:c0:bc:dc:fd:9e:a5:d1:31:39:c5:96:0f:cc:c3:
         58:88:4e:5d:70:64:dd:d7:7f:39:a4:2f:91:5b:0f:ae:37:44:
         dd:15:36:8a:26:b9:fb:51:ec:e3:b2:53:31:f7:7b:9c:11:0f:
         68:21:fd:ce:8c:51:6b:5f
-----BEGIN CERTIFICATE-----
MIIFRjCCAy4CAxAAATANBgkqhkiG9w0BAQUFADCBgDETMBEGA1UEChMKTXkgQ29t
cGFueTEdMBsGCSqGSIb3DQEJARYOc29tZUBlbWFpbC5jb20xEDAOBgNVBAcTB015
IFRvd24xHDAaBgNVBAgTE1N0YXRlIG9yIFByb3ZpZGVuY2UxCzAJBgNVBAYTAlVT
MQ0wCwYDVQQDEwRibGFoMB4XDTE2MDIyNjAwMTYwOFoXDTE3MDIyNTAwMTYwOFow
TzELMAkGA1UEBhMCVVMxHDAaBgNVBAgTE1N0YXRlIG9yIFByb3ZpZGVuY2UxEzAR
BgNVBAoTCk15IENvbXBhbnkxDTALBgNVBAMTBGJsYWgwggIiMA0GCSqGSIb3DQEB
AQUAA4ICDwAwggIKAoICAQCp88H7Q+IQnNNVjCEFWYfY5Ulqrt1o5SkofvFaPSFo
uxbOntWwaClLmWBVEtbivTBIVs+WKd5nqSuTQloJ+OJBJFfqWYCvdJ27lmhGFIE7
Y+3q8ICKy/HK0BEfXOzXyjyQXCe9A0V2ggM35dJM+Wyo92UZlPBa6IEIQbGRK14C
ybCugVCHZHh6rTL8Fsl5+LuxZgVuq4ok+rwJP1lXiNV5AcRBLWcd1swp6NMHVgnP
5FVpGH46YbQliqnfWsFNo4KQdMczDKCcFK0OQIL3TVGqzTJlqqgZWc/FiNsomcSN
XYe48P8gbAGKc4azf8YuIRNWWlVzxUDrqBEa8/X1PZfRwHO5Wq7thnL9w9VzMZ1i
r7q95LIQHs1GKORoC6MIrcCNrLY9KLiMxvCO6Tnv45n1QLvn5Ol6ZBhGRkvJhrMU
lp+BvZs8+nSBIfgM8EodXiMA5nQNs9Fz2j3z2ngWmaqfwoET8ipbSOFNO3hltFga
XXZSYT2kc5at+RLlf/0rJmwScIH3xmFxBr2dowsqkY5g3eQnV3PvrCOj26L7hrSB
i3FqZxSBKhALygs3/zl4lHQrbbxvCRnhX+USMfZPiI01RfOp0Wa2Zk+a+oYTmhEC
PA+GdqUIYMedrKqKYcbnLPX1fVJLdnlEKhxFfbFCH8HTcmWwIE0gChbvIs3/Pt/o
vQIDAQABMA0GCSqGSIb3DQEBBQUAA4ICAQALwy6YVPL9RlOiVhTx2NyOu9nufGc+
jAkqNn4fv6eV/eI0FY0gehOXmnWaj2hsDeh46l+qwW3QbfF578Iy+cF5sBaEoc+c
t/LVkmVDigtm8FSppApA97sXB1Ruoa8Ls+TwvUQNNVWCw4F8DOV9iURpqKtj+HPg
6vkyU3e361+AjkkvyKbVf9f7VTnH2XeMHgBdNVK2cTnhwWSmftgoBnWoWVB6KQ+E
nhF5tHendtE4mNX13PKxi09EMhRCr45+Q++s8EdKaFWPqlA1/5Pb7548oshRy0GG
GifgrKe0csDoa39xJkFSF9SquTs245c5nEYT9KxbTJTBOqmB6c0KktIOPNcTqHdx
rQp6tGyYZj3omSXQ2Tbbpni1f5KIHNrRuFVqlQVU7+VM311UMmRopitw0iFf8R87
unc4rQJzMmMXbeyMkH06eRpPUANNPBilA0zX90AiZqjnY9+ViTPtAe8XSoFxnTJd
+p8BqHgzOeBTWPp98hy4BYbgv/13wB6ZORgB45N/vfB/OhE5sefXLxwrc4YEa74b
C+82W/dN7bl2f7eorgFTnBikmDvUz1HCq9oBU/lTPB2m8WvbYAtBwFEsAkBqHrTW
wLzc/Z6l0TE5xZYPzMNYiE5dcGTd1385pC+RWw+uN0TdFTaKJrn7UezjslMx93uc
EQ9oIf3OjFFrXw==
-----END CERTIFICATE-----
-----BEGIN PRIVATE KEY-----
MIIJQgIBADANBgkqhkiG9w0BAQEFAASCCSwwggkoAgEAAoICAQCp88H7Q+IQnNNV
jCEFWYfY5Ulqrt1o5SkofvFaPSFouxbOntWwaClLmWBVEtbivTBIVs+WKd5nqSuT
QloJ+OJBJFfqWYCvdJ27lmhGFIE7Y+3q8ICKy/HK0BEfXOzXyjyQXCe9A0V2ggM3
5dJM+Wyo92UZlPBa6IEIQbGRK14CybCugVCHZHh6rTL8Fsl5+LuxZgVuq4ok+rwJ
P1lXiNV5AcRBLWcd1swp6NMHVgnP5FVpGH46YbQliqnfWsFNo4KQdMczDKCcFK0O
QIL3TVGqzTJlqqgZWc/FiNsomcSNXYe48P8gbAGKc4azf8YuIRNWWlVzxUDrqBEa
8/X1PZfRwHO5Wq7thnL9w9VzMZ1ir7q95LIQHs1GKORoC6MIrcCNrLY9KLiMxvCO
6Tnv45n1QLvn5Ol6ZBhGRkvJhrMUlp+BvZs8+nSBIfgM8EodXiMA5nQNs9Fz2j3z
2ngWmaqfwoET8ipbSOFNO3hltFgaXXZSYT2kc5at+RLlf/0rJmwScIH3xmFxBr2d
owsqkY5g3eQnV3PvrCOj26L7hrSBi3FqZxSBKhALygs3/zl4lHQrbbxvCRnhX+US
MfZPiI01RfOp0Wa2Zk+a+oYTmhECPA+GdqUIYMedrKqKYcbnLPX1fVJLdnlEKhxF
fbFCH8HTcmWwIE0gChbvIs3/Pt/ovQIDAQABAoICAE+OEWHjNvF719mVzOdKL7My
MZnE3VP64bdZJPWO5BK4cUarR3Baceo3k8Z/GSPuV6mlKWsrkjaIFCPMzYUZgh/o
OVc0Km73cdab45fahVwdvQNbLXDLYxYDK+C4iQ3CV3NkEB4EaAG/fm4uILFzmI/H
rwW4mIKVj8Ejr1E7MbiwXQpy8hVOzK7wYItsx0dXTdUO4sAZgIMq89aIVvQI05Tf
ZNT1we1P3SZJHG+0sMcmJW0a0AvYLJHeRQKO4ynKvpWMdKrK4GvvqcqgHC5TfUUs
5Mh+iE3FouLe22g4ArAB9kR2W5b7uATta0KfL0/sn7audo3I6kjl1Yv+Y0Y3XNdJ
lWK8rZsc8Y+Y8IStIPVwpxcKCOq4+2tt6DGhMQXYwnMW28xxPrnuaTOqQTzVzJgy
oTdookVvA54f/4jdapHBAMgJlAJizuBU7d19Vxl024FDZ2qK/KDnBJvc8JPNB8A/
Nvt+pc5gZYS/6Ov/7x9DHxUmi/G5BgV02OK+Q8ekvSXRmPEmoElYRZSE+lLWwreE
09iWjjVUqzsV1eA3aN57/hms4APyHuJDmagSyckIKO2R3ASbpd9CZ4O14xZO/rDK
+o0NSI5Ii/XJklmRkJq+EmAP3O6xectkw0aftI7CRhx+QYu/XoGfk2f9le3X5P89
cmWcDn11LQR0Y0iBLC+BAoIBAQDXJoeEr/kgdOiXH0jwj7t/qtPz7jGcOlUW3K8e
HjpmrDwcRZZTpdhqkVx+FELt1kQBtd3tmMcK2Ea+HlgFF2IciWvujRjKL1X/qeJn
M1sJg21y+p5VmpxTJ9nQg7u4Og+54Abx2l3A88Rum/sp33F2z+CignmtAHAMm0I2
yPf0uBJGMQt4VjEqyvtBllloZMR/88weQCOeFHB1wXxI3+KQXYcoSVyd45zwpKno
R5sN8vhx0aCXuHWu+RWg6xHv6i0gEH8P4CHMOsMLOvY8OSR0cSNMp5mPV6fkU3rN
cNANBZV8YQJDBRf9lLFgSL6vNwwC0CuT/dGhaZU1QXx1U52NAoIBAQDKOFjJ5Kdf
MbtuXfbewVxWsaMzeS1rNSBskuIW1iRDgV50S05z6fBiJ1YsBR89ryXLmqAFwRqL
sYs+KZj8VKgu3L+Fa7x9boyEzhZqJEVcLPfhfFsrnl4hnkwYK5dMwb8OfljxA5gS
6zR5GWZ6bGINVWGXvD/pyYIK/VLzKk3K+QYRMSxlZbCkXTTtKC4yFBQ8EIWYPgdY
aAY17IdCKSd1zqmXd6NvwtokUgNUXP8jc/MwtaE73rwD6YP9c7+fkkK7GMpCPQAK
IfEjx9vthYSRnm+yIm3Hq4A74DQWfNsrUF3Uu1QszywKLI7IW/wBhEK77L6wwkA1
fI3naMm2u7PxAoIBAF/jyziHGZiuok9gYSjeVqnS4D5ypefEU9Ipr17UCCFkmDHd
jd9gJjFw8fE7ZI0OFydQAEZ59hROSlFHwuEaB99CHDmo5yiNql2VQNPQHr4BtpEt
Q85RZ2TkeP6nB85XClVElLPMKEbsHltR58JE1RQoGC01y7cgX9AujndOYLzQIUzp
ZPxQJf+1kgAsW1LcvntslEfTPEyjPXAuOQ9dwWOoW6nH8KBqJrNWIGfnKiMwbCyG
SnX0f3bpiws6Wbc8/rmwwIC52zZj5jQmJkK3ERlYp2vtstIhNjHcRvozUnbLS1Gx
BsoKBiQ91kRch6gd95t1XkbKNFklbpvawPaluq0CggEANpDFxJSiZRlyTfGk766V
T/9W3kjQbKFFQobP4wGdf2mlJxQ68yQo7RNYOUCYkXh1Zl8u1t6oXxFlVTy8PzpI
t3xxYXsUvXPbDurdOX7YCGtJ59o6b6aoF8IzHkKE7P1KpIqLTV1+53v4CMVF1brx
Kk/jqaHuTRNGt9hrTZoYq7BOZs0yAZpS88cCxQuWi4THgP2kTtRN/xjytBJC3SNl
tnAxauGphDq7yhknNNhzMAnVkUsxWopbiWK1buqQxmoc/4dM7FqxbAqEmvcO7SSe
BP0Pfq2zmbE5RO7Wn0rJiQKCjyiNKhos9AHZ9U58zZv2tebH/cIsuUIGuG6aH2i+
wQKCAQEAwfR0bPc/4QiJauNofOaF5qKsdc00OokPJ8IGB6aJ0sWM8DeLeIL+Cxyo
oVd3ek6xE4L9znLR63R+0o9bhyfFIROstXfjIjiVL/p13y2PvCAL+/ZVIC9ayO6M
yw4RmmiDwjNjFxRpNiRuB//VcwXtKdt6ZONEKj460PIX0J5+qyHOPuxGSY0rkxlr
/ONrsvQYLmX1ec1GNG4f6YGfxmxcbJ8MstmFxTUi0qSTX0CgkKiVJCKZp3oGZCO4
iKOooxDRrxXRWaxVdrfcvkZcYgfX2vugSdi5FE20SdyDEwqmHPVA+xDq25fr/59m
+8HbQ62WPahKfAVhrhZ5C7bciyWDDw==
-----END PRIVATE KEY-----
